target datalayout = "e-m:e-p270:32:32-p271:32:32-p272:64:64-i64:64-i128:128-f80:128-n8:16:32:64-S128"
target triple = "x86_64-pc-linux-gnu"

%struct.tag_exp_arg = type { i32, i32, i32, i32, ptr, [20 x %struct.tag_exp_type], i32 }
%struct.tag_exp_type = type { i32, i32, i32, i32, i64 }

@.str = private unnamed_addr constant [34 x i8] c"../openssl/crypto/asn1/asn1_gen.c\00", align 1
@__func__.append_exp = private unnamed_addr constant [11 x i8] c"append_exp\00", align 1

; Function Attrs: nounwind uwtable
define internal i32 @append_exp(ptr noundef %0, i32 noundef %1, i32 noundef %2, i32 noundef %3, i32 noundef %4, i32 noundef %5) #0 {
  %7 = alloca i32, align 4
  %8 = alloca ptr, align 8
  %9 = alloca i32, align 4
  %10 = alloca i32, align 4
  %11 = alloca i32, align 4
  %12 = alloca i32, align 4
  %13 = alloca i32, align 4
  %14 = alloca ptr, align 8
  %15 = alloca i32, align 4
  store ptr %0, ptr %8, align 8, !tbaa !27
  store i32 %1, ptr %9, align 4, !tbaa !12
  store i32 %2, ptr %10, align 4, !tbaa !12
  store i32 %3, ptr %11, align 4, !tbaa !12
  store i32 %4, ptr %12, align 4, !tbaa !12
  store i32 %5, ptr %13, align 4, !tbaa !12
  call void @llvm.lifetime.start.p0(i64 8, ptr %14) #7
  %16 = load ptr, ptr %8, align 8, !tbaa !27
  %17 = getelementptr inbounds nuw %struct.tag_exp_arg, ptr %16, i32 0, i32 0
  %18 = load i32, ptr %17, align 8, !tbaa !20
  %19 = icmp ne i32 %18, -1
  br i1 %19, label %20, label %24

20:                                               ; preds = %6
  %21 = load i32, ptr %13, align 4, !tbaa !12
  %22 = icmp ne i32 %21, 0
  br i1 %22, label %24, label %23

23:                                               ; preds = %20
  call void @ERR_new()
  call void @ERR_set_debug(ptr noundef @.str, i32 noundef 469, ptr noundef @__func__.append_exp)
  call void (i32, i32, ptr, ...) @ERR_set_error(i32 noundef 13, i32 noundef 179, ptr noundef null)
  store i32 0, ptr %7, align 4
  store i32 1, ptr %15, align 4
  br label %72

24:                                               ; preds = %20, %6
  %25 = load ptr, ptr %8, align 8, !tbaa !27
  %26 = getelementptr inbounds nuw %struct.tag_exp_arg, ptr %25, i32 0, i32 6
  %27 = load i32, ptr %26, align 8, !tbaa !24
  %28 = icmp eq i32 %27, 20
  br i1 %28, label %29, label %30

29:                                               ; preds = %24
  call void @ERR_new()
  call void @ERR_set_debug(ptr noundef @.str, i32 noundef 474, ptr noundef @__func__.append_exp)
  call void (i32, i32, ptr, ...) @ERR_set_error(i32 noundef 13, i32 noundef 174, ptr noundef null)
  store i32 0, ptr %7, align 4
  store i32 1, ptr %15, align 4
  br label %72

30:                                               ; preds = %24
  %31 = load ptr, ptr %8, align 8, !tbaa !27
  %32 = getelementptr inbounds nuw %struct.tag_exp_arg, ptr %31, i32 0, i32 5
  %33 = load ptr, ptr %8, align 8, !tbaa !27
  %34 = getelementptr inbounds nuw %struct.tag_exp_arg, ptr %33, i32 0, i32 6
  %35 = load i32, ptr %34, align 8, !tbaa !24
  %36 = add nsw i32 %35, 1
  store i32 %36, ptr %34, align 8, !tbaa !24
  %37 = sext i32 %35 to i64
  %38 = getelementptr inbounds [20 x %struct.tag_exp_type], ptr %32, i64 0, i64 %37
  store ptr %38, ptr %14, align 8, !tbaa !27
  %39 = load ptr, ptr %8, align 8, !tbaa !27
  %40 = getelementptr inbounds nuw %struct.tag_exp_arg, ptr %39, i32 0, i32 0
  %41 = load i32, ptr %40, align 8, !tbaa !20
  %42 = icmp ne i32 %41, -1
  br i1 %42, label %43, label %58

43:                                               ; preds = %30
  %44 = load ptr, ptr %8, align 8, !tbaa !27
  %45 = getelementptr inbounds nuw %struct.tag_exp_arg, ptr %44, i32 0, i32 0
  %46 = load i32, ptr %45, align 8, !tbaa !20
  %47 = load ptr, ptr %14, align 8, !tbaa !27
  %48 = getelementptr inbounds nuw %struct.tag_exp_type, ptr %47, i32 0, i32 0
  store i32 %46, ptr %48, align 8, !tbaa !31
  %49 = load ptr, ptr %8, align 8, !tbaa !27
  %50 = getelementptr inbounds nuw %struct.tag_exp_arg, ptr %49, i32 0, i32 1
  %51 = load i32, ptr %50, align 4, !tbaa !22
  %52 = load ptr, ptr %14, align 8, !tbaa !27
  %53 = getelementptr inbounds nuw %struct.tag_exp_type, ptr %52, i32 0, i32 1
  store i32 %51, ptr %53, align 4, !tbaa !35
  %54 = load ptr, ptr %8, align 8, !tbaa !27
  %55 = getelementptr inbounds nuw %struct.tag_exp_arg, ptr %54, i32 0, i32 0
  store i32 -1, ptr %55, align 8, !tbaa !20
  %56 = load ptr, ptr %8, align 8, !tbaa !27
  %57 = getelementptr inbounds nuw %struct.tag_exp_arg, ptr %56, i32 0, i32 1
  store i32 -1, ptr %57, align 4, !tbaa !22
  br label %65

58:                                               ; preds = %30
  %59 = load i32, ptr %9, align 4, !tbaa !12
  %60 = load ptr, ptr %14, align 8, !tbaa !27
  %61 = getelementptr inbounds nuw %struct.tag_exp_type, ptr %60, i32 0, i32 0
  store i32 %59, ptr %61, align 8, !tbaa !31
  %62 = load i32, ptr %10, align 4, !tbaa !12
  %63 = load ptr, ptr %14, align 8, !tbaa !27
  %64 = getelementptr inbounds nuw %struct.tag_exp_type, ptr %63, i32 0, i32 1
  store i32 %62, ptr %64, align 4, !tbaa !35
  br label %65

65:                                               ; preds = %58, %43
  %66 = load i32, ptr %11, align 4, !tbaa !12
  %67 = load ptr, ptr %14, align 8, !tbaa !27
  %68 = getelementptr inbounds nuw %struct.tag_exp_type, ptr %67, i32 0, i32 2
  store i32 %66, ptr %68, align 8, !tbaa !34
  %69 = load i32, ptr %12, align 4, !tbaa !12
  %70 = load ptr, ptr %14, align 8, !tbaa !27
  %71 = getelementptr inbounds nuw %struct.tag_exp_type, ptr %70, i32 0, i32 3
  store i32 %69, ptr %71, align 4, !tbaa !28
  store i32 1, ptr %7, align 4
  store i32 1, ptr %15, align 4
  br label %72

72:                                               ; preds = %65, %29, %23
  call void @llvm.lifetime.end.p0(i64 8, ptr %14) #7
  %73 = load i32, ptr %7, align 4
  ret i32 %73
}