; Function Attrs: nounwind uwtable
define internal fastcc range(i32 0, 2) i32 @append_exp(ptr noundef captures(none) %0, i32 noundef %1, i32 noundef %2, i32 noundef range(i32 0, 2) %3, i32 noundef range(i32 0, 2) %4, i32 noundef range(i32 0, 2) %5) unnamed_addr #0 {
  %7 = load i32, ptr %0, align 8, !tbaa !12
  %8 = icmp eq i32 %7, -1
  %9 = icmp ne i32 %5, 0
  %or.cond = or i1 %9, %8
  br i1 %or.cond, label %11, label %10

10:                                               ; preds = %6
  tail call void @ERR_new() #7
  tail call void @ERR_set_debug(ptr noundef nonnull @.str, i32 noundef 469, ptr noundef nonnull @__func__.append_exp) #7
  tail call void (i32, i32, ptr, ...) @ERR_set_error(i32 noundef 13, i32 noundef 179, ptr noundef null) #7
  br label %28

11:                                               ; preds = %6
  %12 = getelementptr inbounds nuw i8, ptr %0, i64 504
  %13 = load i32, ptr %12, align 8, !tbaa !16
  %14 = icmp eq i32 %13, 20
  br i1 %14, label %15, label %16

15:                                               ; preds = %11
  tail call void @ERR_new() #7
  tail call void @ERR_set_debug(ptr noundef nonnull @.str, i32 noundef 474, ptr noundef nonnull @__func__.append_exp) #7
  tail call void (i32, i32, ptr, ...) @ERR_set_error(i32 noundef 13, i32 noundef 174, ptr noundef null) #7
  br label %28

16:                                               ; preds = %11
  %17 = getelementptr inbounds nuw i8, ptr %0, i64 24
  %18 = add nsw i32 %13, 1
  store i32 %18, ptr %12, align 8, !tbaa !16
  %19 = sext i32 %13 to i64
  %20 = getelementptr inbounds [20 x %struct.tag_exp_type], ptr %17, i64 0, i64 %19
  br i1 %8, label %24, label %21

21:                                               ; preds = %16
  %22 = getelementptr inbounds nuw i8, ptr %0, i64 4
  %23 = load i32, ptr %22, align 4, !tbaa !14
  store i32 -1, ptr %0, align 8, !tbaa !12
  store i32 -1, ptr %22, align 4, !tbaa !14
  br label %24

24:                                               ; preds = %16, %21
  %.sink23 = phi i32 [ %7, %21 ], [ %1, %16 ]
  %.sink = phi i32 [ %23, %21 ], [ %2, %16 ]
  store i32 %.sink23, ptr %20, align 8, !tbaa !33
  %25 = getelementptr inbounds nuw i8, ptr %20, i64 4
  store i32 %.sink, ptr %25, align 4, !tbaa !36
  %26 = getelementptr inbounds nuw i8, ptr %20, i64 8
  store i32 %3, ptr %26, align 8, !tbaa !35
  %27 = getelementptr inbounds nuw i8, ptr %20, i64 12
  store i32 %4, ptr %27, align 4, !tbaa !30
  br label %28

28:                                               ; preds = %24, %15, %10
  %.0 = phi i32 [ 0, %15 ], [ 1, %24 ], [ 0, %10 ]
  ret i32 %.0
}